; Function Attrs: mustprogress uwtable
define internal void @"_ZNSt17_Function_handlerIFvvEZ27lean_read_module_data_partsE3$_0E9_M_invokeERKSt9_Any_data"(ptr noundef nonnull readonly align 8 captures(none) dereferenceable(16) %0) #0 align 2 personality ptr @__gxx_personality_v0 {
  %.val = load ptr, ptr %0, align 8, !tbaa !212
  %2 = getelementptr inbounds nuw i8, ptr %0, i64 8
  %.val1 = load i64, ptr %2, align 8, !tbaa !214
  %3 = tail call i32 @munmap(ptr noundef %.val, i64 noundef %.val1) #27
  %.not.i.i.i = icmp eq i32 %3, 0
  br i1 %.not.i.i.i, label %"_ZSt10__invoke_rIvRZ27lean_read_module_data_partsE3$_0JEENSt9enable_ifIXsr7is_voidIT_EE5valueES3_E4typeEOT0_DpOT1_.exit", label %4, !prof !8

4:                                                ; preds = %1
  tail call void @_ZN4lean26notify_assertion_violationEPKciS1_(ptr noundef nonnull @.str.18, i32 noundef 259, ptr noundef nonnull @.str.19)
  %5 = tail call ptr @__cxa_allocate_exception(i64 40) #27
  %6 = getelementptr inbounds nuw i8, ptr %5, i64 8
  %7 = getelementptr inbounds nuw i8, ptr %5, i64 24
  store ptr %7, ptr %6, align 8, !tbaa !21
  %8 = getelementptr inbounds nuw i8, ptr %5, i64 16
  store i64 0, ptr %8, align 8, !tbaa !27
  store i8 0, ptr %7, align 1, !tbaa !26
  store ptr getelementptr inbounds nuw inrange(-16, 24) (i8, ptr @_ZTVN4lean19unreachable_reachedE, i64 16), ptr %5, align 8, !tbaa !69
  tail call void @__cxa_throw(ptr nonnull %5, ptr nonnull @_ZTIN4lean19unreachable_reachedE, ptr nonnull @_ZN4lean9throwableD2Ev) #29
  unreachable

"_ZSt10__invoke_rIvRZ27lean_read_module_data_partsE3$_0JEENSt9enable_ifIXsr7is_voidIT_EE5valueES3_E4typeEOT0_DpOT1_.exit": ; preds = %1
  ret void
}